target datalayout = "e-m:e-p270:32:32-p271:32:32-p272:64:64-i64:64-i128:128-f80:128-n8:16:32:64-S128"
target triple = "x86_64-pc-linux-gnu"

; Function Attrs: inlinehint nounwind uwtable
define internal i32 @shake_xof(ptr noundef %0, ptr noundef %1, ptr noundef %2, i64 noundef %3, ptr noundef %4, i64 noundef %5) #3 {
  %7 = alloca ptr, align 8
  %8 = alloca ptr, align 8
  %9 = alloca ptr, align 8
  %10 = alloca i64, align 8
  %11 = alloca ptr, align 8
  %12 = alloca i64, align 8
  store ptr %0, ptr %7, align 8, !tbaa !36
  store ptr %1, ptr %8, align 8, !tbaa !45
  store ptr %2, ptr %9, align 8, !tbaa !25
  store i64 %3, ptr %10, align 8, !tbaa !10
  store ptr %4, ptr %11, align 8, !tbaa !25
  store i64 %5, ptr %12, align 8, !tbaa !10
  %13 = load ptr, ptr %7, align 8, !tbaa !36
  %14 = load ptr, ptr %8, align 8, !tbaa !45
  %15 = call i32 @EVP_DigestInit_ex2(ptr noundef %13, ptr noundef %14, ptr noundef null)
  %16 = icmp eq i32 %15, 1
  br i1 %16, label %17, label %29

17:                                               ; preds = %6
  %18 = load ptr, ptr %7, align 8, !tbaa !36
  %19 = load ptr, ptr %9, align 8, !tbaa !25
  %20 = load i64, ptr %10, align 8, !tbaa !10
  %21 = call i32 @EVP_DigestUpdate(ptr noundef %18, ptr noundef %19, i64 noundef %20)
  %22 = icmp eq i32 %21, 1
  br i1 %22, label %23, label %29

23:                                               ; preds = %17
  %24 = load ptr, ptr %7, align 8, !tbaa !36
  %25 = load ptr, ptr %11, align 8, !tbaa !25
  %26 = load i64, ptr %12, align 8, !tbaa !10
  %27 = call i32 @EVP_DigestSqueeze(ptr noundef %24, ptr noundef %25, i64 noundef %26)
  %28 = icmp eq i32 %27, 1
  br label %29

29:                                               ; preds = %23, %17, %6
  %30 = phi i1 [ false, %17 ], [ false, %6 ], [ %28, %23 ]
  %31 = zext i1 %30 to i32
  ret i32 %31
}