; Function Attrs: inlinehint nounwind uwtable
define internal fastcc range(i32 0, 2) i32 @shake_xof(ptr noundef nonnull %0, ptr noundef %1, ptr noundef %2, i64 noundef %3, ptr noundef %4) unnamed_addr #3 {
  %6 = tail call i32 @EVP_DigestInit_ex2(ptr noundef nonnull %0, ptr noundef %1, ptr noundef null) #9
  %7 = icmp eq i32 %6, 1
  br i1 %7, label %8, label %15

8:                                                ; preds = %5
  %9 = tail call i32 @EVP_DigestUpdate(ptr noundef nonnull %0, ptr noundef %2, i64 noundef %3) #9
  %10 = icmp eq i32 %9, 1
  br i1 %10, label %11, label %15

11:                                               ; preds = %8
  %12 = tail call i32 @EVP_DigestSqueeze(ptr noundef nonnull %0, ptr noundef %4, i64 noundef 64) #9
  %13 = icmp eq i32 %12, 1
  %14 = zext i1 %13 to i32
  br label %15

15:                                               ; preds = %11, %8, %5
  %16 = phi i32 [ 0, %8 ], [ 0, %5 ], [ %14, %11 ]
  ret i32 %16
}